; Function Attrs: mustprogress uwtable
define void @_ZN22TrafficDataFilterProxyC2EP7QObject(ptr noundef nonnull align 8 dereferenceable(72) %0, ptr noundef %1) unnamed_addr #0 align 2 personality ptr @__gxx_personality_v0 {
  tail call void @_ZN21QSortFilterProxyModelC2EP7QObject(ptr noundef nonnull align 8 dereferenceable(16) %0, ptr noundef %1)
  store ptr getelementptr inbounds ({ [59 x ptr] }, ptr @_ZTV22TrafficDataFilterProxy, i64 0, i32 0, i64 2), ptr %0, align 8
  %3 = getelementptr inbounds i8, ptr %0, i64 16
  tail call void @llvm.memset.p0.i64(ptr noundef nonnull align 8 dereferenceable(24) %3, i8 0, i64 24, i1 false)
  %4 = getelementptr inbounds i8, ptr %0, i64 40
  store i32 -1, ptr %4, align 8
  %5 = getelementptr inbounds i8, ptr %0, i64 44
  store i32 -1, ptr %5, align 4
  %6 = getelementptr inbounds i8, ptr %0, i64 48
  tail call void @llvm.memset.p0.i64(ptr noundef nonnull align 8 dereferenceable(24) %6, i8 0, i64 24, i1 false)
  invoke void @_ZN21QSortFilterProxyModel11setSortRoleEi(ptr noundef nonnull align 8 dereferenceable(16) %0, i32 noundef 257)
          to label %7 unwind label %8

7:                                                ; preds = %2
  ret void

8:                                                ; preds = %2
  %9 = landingpad { ptr, i32 }
          cleanup
  tail call void @_ZN7QStringD2Ev(ptr noundef nonnull align 8 dereferenceable(24) %6) #24
  tail call void @_ZN5QListIiED2Ev(ptr noundef nonnull align 8 dereferenceable(24) %3) #24
  tail call void @_ZN21QSortFilterProxyModelD2Ev(ptr noundef nonnull align 8 dereferenceable(16) %0) #24
  resume { ptr, i32 } %9
}